target datalayout = "e-m:e-p270:32:32-p271:32:32-p272:64:64-i64:64-i128:128-f80:128-n8:16:32:64-S128"
target triple = "x86_64-pc-linux-gnu"

%struct.FFIOContext = type { %struct.AVIOContext, ptr, i32, i32, i64, i64, i64, i64, i32, i32, i32, i64 }
%struct.AVIOContext = type { ptr, ptr, i32, ptr, ptr, ptr, ptr, ptr, ptr, i64, i32, i32, i32, i32, i32, i64, ptr, ptr, ptr, ptr, i32, i32, ptr, ptr, ptr, i32, ptr, i64, i64 }
%struct.MP4DescrParseContext = type { ptr, %struct.FFIOContext, ptr, ptr, i32, i32, i32, i32 }

@.str.16 = private unnamed_addr constant [58 x i8] c"Tag %x length violation new length %d bytes remaining %d\0A\00", align 1
@.str.17 = private unnamed_addr constant [39 x i8] c"Maximum MP4 descriptor level exceeded\0A\00", align 1
@.str.18 = private unnamed_addr constant [26 x i8] c"Found tag %x expected %x\0A\00", align 1

; Function Attrs: alwaysinline nounwind uwtable
define internal i64 @avio_tell(ptr noundef %0) #2 {
  %2 = alloca ptr, align 8
  store ptr %0, ptr %2, align 8, !tbaa !183
  %3 = load ptr, ptr %2, align 8, !tbaa !183
  %4 = call i64 @avio_seek(ptr noundef %3, i64 noundef 0, i32 noundef 1)
  ret i64 %4
}

; Function Attrs: nounwind uwtable
define internal void @update_offsets(ptr noundef %0, ptr noundef %1, ptr noundef %2) #0 {
  %4 = alloca ptr, align 8
  %5 = alloca ptr, align 8
  %6 = alloca ptr, align 8
  %7 = alloca i64, align 8
  store ptr %0, ptr %4, align 8, !tbaa !183
  store ptr %1, ptr %5, align 8, !tbaa !196
  store ptr %2, ptr %6, align 8, !tbaa !213
  call void @llvm.lifetime.start.p0(i64 8, ptr %7) #12
  %8 = load ptr, ptr %4, align 8, !tbaa !183
  %9 = call i64 @avio_tell(ptr noundef %8)
  store i64 %9, ptr %7, align 8, !tbaa !90
  %10 = load i64, ptr %7, align 8, !tbaa !90
  %11 = load ptr, ptr %5, align 8, !tbaa !196
  %12 = load i64, ptr %11, align 8, !tbaa !90
  %13 = sub nsw i64 %10, %12
  %14 = load ptr, ptr %6, align 8, !tbaa !213
  %15 = load i32, ptr %14, align 4, !tbaa !11
  %16 = sext i32 %15 to i64
  %17 = sub nsw i64 %16, %13
  %18 = trunc i64 %17 to i32
  store i32 %18, ptr %14, align 4, !tbaa !11
  %19 = load i64, ptr %7, align 8, !tbaa !90
  %20 = load ptr, ptr %5, align 8, !tbaa !196
  store i64 %19, ptr %20, align 8, !tbaa !90
  call void @llvm.lifetime.end.p0(i64 8, ptr %7) #12
  ret void
}

; Function Attrs: nounwind uwtable
define internal i32 @parse_mp4_descr(ptr noundef %0, i64 noundef %1, i32 noundef %2, i32 noundef %3) #0 {
  %5 = alloca i32, align 4
  %6 = alloca ptr, align 8
  %7 = alloca i64, align 8
  %8 = alloca i32, align 4
  %9 = alloca i32, align 4
  %10 = alloca i32, align 4
  %11 = alloca ptr, align 8
  %12 = alloca i32, align 4
  %13 = alloca i32, align 4
  %14 = alloca i32, align 4
  store ptr %0, ptr %6, align 8, !tbaa !218
  store i64 %1, ptr %7, align 8, !tbaa !90
  store i32 %2, ptr %8, align 4, !tbaa !11
  store i32 %3, ptr %9, align 4, !tbaa !11
  call void @llvm.lifetime.start.p0(i64 4, ptr %10) #12
  call void @llvm.lifetime.start.p0(i64 8, ptr %11) #12
  %15 = load ptr, ptr %6, align 8, !tbaa !218
  %16 = getelementptr inbounds nuw %struct.MP4DescrParseContext, ptr %15, i32 0, i32 1
  %17 = getelementptr inbounds nuw %struct.FFIOContext, ptr %16, i32 0, i32 0
  store ptr %17, ptr %11, align 8, !tbaa !183
  call void @llvm.lifetime.start.p0(i64 4, ptr %12) #12
  %18 = load ptr, ptr %6, align 8, !tbaa !218
  %19 = getelementptr inbounds nuw %struct.MP4DescrParseContext, ptr %18, i32 0, i32 0
  %20 = load ptr, ptr %19, align 8, !tbaa !220
  %21 = load ptr, ptr %11, align 8, !tbaa !183
  %22 = call i32 @ff_mp4_read_descr(ptr noundef %20, ptr noundef %21, ptr noundef %10)
  store i32 %22, ptr %12, align 4, !tbaa !11
  call void @llvm.lifetime.start.p0(i64 4, ptr %13) #12
  store i32 0, ptr %13, align 4, !tbaa !11
  %23 = load ptr, ptr %11, align 8, !tbaa !183
  call void @update_offsets(ptr noundef %23, ptr noundef %7, ptr noundef %8)
  %24 = load i32, ptr %8, align 4, !tbaa !11
  %25 = icmp slt i32 %24, 0
  br i1 %25, label %33, label %26

26:                                               ; preds = %4
  %27 = load i32, ptr %12, align 4, !tbaa !11
  %28 = load i32, ptr %8, align 4, !tbaa !11
  %29 = icmp sgt i32 %27, %28
  br i1 %29, label %33, label %30

30:                                               ; preds = %26
  %31 = load i32, ptr %12, align 4, !tbaa !11
  %32 = icmp sle i32 %31, 0
  br i1 %32, label %33, label %40

33:                                               ; preds = %30, %26, %4
  %34 = load ptr, ptr %6, align 8, !tbaa !218
  %35 = getelementptr inbounds nuw %struct.MP4DescrParseContext, ptr %34, i32 0, i32 0
  %36 = load ptr, ptr %35, align 8, !tbaa !220
  %37 = load i32, ptr %10, align 4, !tbaa !11
  %38 = load i32, ptr %12, align 4, !tbaa !11
  %39 = load i32, ptr %8, align 4, !tbaa !11
  call void (ptr, i32, ptr, ...) @av_log(ptr noundef %36, i32 noundef 16, ptr noundef @.str.16, i32 noundef %37, i32 noundef %38, i32 noundef %39)
  store i32 -1094995529, ptr %5, align 4
  store i32 1, ptr %14, align 4
  br label %103

40:                                               ; preds = %30
  %41 = load ptr, ptr %6, align 8, !tbaa !218
  %42 = getelementptr inbounds nuw %struct.MP4DescrParseContext, ptr %41, i32 0, i32 6
  %43 = load i32, ptr %42, align 8, !tbaa !221
  %44 = add nsw i32 %43, 1
  store i32 %44, ptr %42, align 8, !tbaa !221
  %45 = icmp sge i32 %43, 4
  br i1 %45, label %46, label %50

46:                                               ; preds = %40
  %47 = load ptr, ptr %6, align 8, !tbaa !218
  %48 = getelementptr inbounds nuw %struct.MP4DescrParseContext, ptr %47, i32 0, i32 0
  %49 = load ptr, ptr %48, align 8, !tbaa !220
  call void (ptr, i32, ptr, ...) @av_log(ptr noundef %49, i32 noundef 16, ptr noundef @.str.17)
  store i32 -1094995529, ptr %13, align 4, !tbaa !11
  br label %91

50:                                               ; preds = %40
  %51 = load i32, ptr %9, align 4, !tbaa !11
  %52 = icmp ne i32 %51, 0
  br i1 %52, label %53, label %63

53:                                               ; preds = %50
  %54 = load i32, ptr %10, align 4, !tbaa !11
  %55 = load i32, ptr %9, align 4, !tbaa !11
  %56 = icmp ne i32 %54, %55
  br i1 %56, label %57, label %63

57:                                               ; preds = %53
  %58 = load ptr, ptr %6, align 8, !tbaa !218
  %59 = getelementptr inbounds nuw %struct.MP4DescrParseContext, ptr %58, i32 0, i32 0
  %60 = load ptr, ptr %59, align 8, !tbaa !220
  %61 = load i32, ptr %10, align 4, !tbaa !11
  %62 = load i32, ptr %9, align 4, !tbaa !11
  call void (ptr, i32, ptr, ...) @av_log(ptr noundef %60, i32 noundef 16, ptr noundef @.str.18, i32 noundef %61, i32 noundef %62)
  store i32 -1094995529, ptr %13, align 4, !tbaa !11
  br label %91

63:                                               ; preds = %53, %50
  %64 = load i32, ptr %10, align 4, !tbaa !11
  switch i32 %64, label %90 [
    i32 2, label %65
    i32 1, label %70
    i32 3, label %75
    i32 4, label %80
    i32 6, label %85
  ]

65:                                               ; preds = %63
  %66 = load ptr, ptr %6, align 8, !tbaa !218
  %67 = load i64, ptr %7, align 8, !tbaa !90
  %68 = load i32, ptr %12, align 4, !tbaa !11
  %69 = call i32 @parse_MP4IODescrTag(ptr noundef %66, i64 noundef %67, i32 noundef %68)
  store i32 %69, ptr %13, align 4, !tbaa !11
  br label %90

70:                                               ; preds = %63
  %71 = load ptr, ptr %6, align 8, !tbaa !218
  %72 = load i64, ptr %7, align 8, !tbaa !90
  %73 = load i32, ptr %12, align 4, !tbaa !11
  %74 = call i32 @parse_MP4ODescrTag(ptr noundef %71, i64 noundef %72, i32 noundef %73)
  store i32 %74, ptr %13, align 4, !tbaa !11
  br label %90

75:                                               ; preds = %63
  %76 = load ptr, ptr %6, align 8, !tbaa !218
  %77 = load i64, ptr %7, align 8, !tbaa !90
  %78 = load i32, ptr %12, align 4, !tbaa !11
  %79 = call i32 @parse_MP4ESDescrTag(ptr noundef %76, i64 noundef %77, i32 noundef %78)
  store i32 %79, ptr %13, align 4, !tbaa !11
  br label %90

80:                                               ; preds = %63
  %81 = load ptr, ptr %6, align 8, !tbaa !218
  %82 = load i64, ptr %7, align 8, !tbaa !90
  %83 = load i32, ptr %12, align 4, !tbaa !11
  %84 = call i32 @parse_MP4DecConfigDescrTag(ptr noundef %81, i64 noundef %82, i32 noundef %83)
  store i32 %84, ptr %13, align 4, !tbaa !11
  br label %90

85:                                               ; preds = %63
  %86 = load ptr, ptr %6, align 8, !tbaa !218
  %87 = load i64, ptr %7, align 8, !tbaa !90
  %88 = load i32, ptr %12, align 4, !tbaa !11
  %89 = call i32 @parse_MP4SLDescrTag(ptr noundef %86, i64 noundef %87, i32 noundef %88)
  store i32 %89, ptr %13, align 4, !tbaa !11
  br label %90

90:                                               ; preds = %63, %85, %80, %75, %70, %65
  br label %91

91:                                               ; preds = %90, %57, %46
  %92 = load ptr, ptr %6, align 8, !tbaa !218
  %93 = getelementptr inbounds nuw %struct.MP4DescrParseContext, ptr %92, i32 0, i32 6
  %94 = load i32, ptr %93, align 8, !tbaa !221
  %95 = add nsw i32 %94, -1
  store i32 %95, ptr %93, align 8, !tbaa !221
  %96 = load ptr, ptr %11, align 8, !tbaa !183
  %97 = load i64, ptr %7, align 8, !tbaa !90
  %98 = load i32, ptr %12, align 4, !tbaa !11
  %99 = sext i32 %98 to i64
  %100 = add nsw i64 %97, %99
  %101 = call i64 @avio_seek(ptr noundef %96, i64 noundef %100, i32 noundef 0)
  %102 = load i32, ptr %13, align 4, !tbaa !11
  store i32 %102, ptr %5, align 4
  store i32 1, ptr %14, align 4
  br label %103

103:                                              ; preds = %91, %33
  call void @llvm.lifetime.end.p0(i64 4, ptr %13) #12
  call void @llvm.lifetime.end.p0(i64 4, ptr %12) #12
  call void @llvm.lifetime.end.p0(i64 8, ptr %11) #12
  call void @llvm.lifetime.end.p0(i64 4, ptr %10) #12
  %104 = load i32, ptr %5, align 4
  ret i32 %104
}