; Function Attrs: nounwind uwtable
define internal fastcc i32 @parse_mp4_descr(ptr noundef nonnull %0, i64 noundef %1, i32 noundef %2, i32 noundef range(i32 0, 7) %3) unnamed_addr #0 {
  %5 = alloca i32, align 4
  call void @llvm.lifetime.start.p0(i64 4, ptr nonnull %5) #12
  %6 = getelementptr inbounds nuw i8, ptr %0, i64 8
  %7 = load ptr, ptr %0, align 8, !tbaa !93
  %8 = call i32 @ff_mp4_read_descr(ptr noundef %7, ptr noundef nonnull %6, ptr noundef nonnull %5) #12
  %9 = call i64 @avio_seek(ptr noundef nonnull %6, i64 noundef 0, i32 noundef 1) #12
  %.neg.i = sub i64 %1, %9
  %10 = trunc i64 %.neg.i to i32
  %11 = add i32 %2, %10
  %12 = icmp slt i32 %11, 0
  br i1 %12, label %16, label %13

13:                                               ; preds = %4
  %14 = icmp sgt i32 %8, %11
  %15 = icmp slt i32 %8, 1
  %or.cond = or i1 %15, %14
  br i1 %or.cond, label %16, label %19

16:                                               ; preds = %13, %4
  %17 = load ptr, ptr %0, align 8, !tbaa !93
  %18 = load i32, ptr %5, align 4, !tbaa !107
  call void (ptr, i32, ptr, ...) @av_log(ptr noundef %17, i32 noundef 16, ptr noundef nonnull @.str.16, i32 noundef %18, i32 noundef %8, i32 noundef %11) #12
  br label %47

19:                                               ; preds = %13
  %20 = getelementptr inbounds nuw i8, ptr %0, i64 312
  %21 = load i32, ptr %20, align 8, !tbaa !98
  %22 = add nsw i32 %21, 1
  store i32 %22, ptr %20, align 8, !tbaa !98
  %23 = icmp sgt i32 %21, 3
  br i1 %23, label %24, label %26

24:                                               ; preds = %19
  %25 = load ptr, ptr %0, align 8, !tbaa !93
  call void (ptr, i32, ptr, ...) @av_log(ptr noundef %25, i32 noundef 16, ptr noundef nonnull @.str.17) #12
  br label %41

26:                                               ; preds = %19
  %.not = icmp eq i32 %3, 0
  %.pr = load i32, ptr %5, align 4, !tbaa !107
  br i1 %.not, label %thread-pre-split, label %27

27:                                               ; preds = %26
  %.not34 = icmp eq i32 %.pr, %3
  br i1 %.not34, label %thread-pre-split, label %28

28:                                               ; preds = %27
  %29 = load ptr, ptr %0, align 8, !tbaa !93
  call void (ptr, i32, ptr, ...) @av_log(ptr noundef %29, i32 noundef 16, ptr noundef nonnull @.str.18, i32 noundef %.pr, i32 noundef %3) #12
  br label %41

thread-pre-split:                                 ; preds = %26, %27
  %30 = phi i32 [ %3, %27 ], [ %.pr, %26 ]
  switch i32 %30, label %41 [
    i32 2, label %31
    i32 1, label %33
    i32 3, label %35
    i32 4, label %37
    i32 6, label %39
  ]

31:                                               ; preds = %thread-pre-split
  %32 = call fastcc i32 @parse_MP4IODescrTag(ptr noundef %0, i64 noundef %9, i32 noundef %8)
  br label %41

33:                                               ; preds = %thread-pre-split
  %34 = call fastcc i32 @parse_MP4ODescrTag(ptr noundef %0, i64 noundef %9, i32 noundef %8)
  br label %41

35:                                               ; preds = %thread-pre-split
  %36 = call fastcc i32 @parse_MP4ESDescrTag(ptr noundef %0, i64 noundef %9, i32 noundef %8)
  br label %41

37:                                               ; preds = %thread-pre-split
  %38 = call fastcc i32 @parse_MP4DecConfigDescrTag(ptr noundef %0, i32 noundef %8)
  br label %41

39:                                               ; preds = %thread-pre-split
  %40 = call fastcc i32 @parse_MP4SLDescrTag(ptr noundef %0)
  br label %41

41:                                               ; preds = %thread-pre-split, %31, %33, %35, %37, %39, %28, %24
  %.0 = phi i32 [ -1094995529, %24 ], [ -1094995529, %28 ], [ 0, %thread-pre-split ], [ %40, %39 ], [ %38, %37 ], [ %36, %35 ], [ %34, %33 ], [ %32, %31 ]
  %42 = load i32, ptr %20, align 8, !tbaa !98
  %43 = add nsw i32 %42, -1
  store i32 %43, ptr %20, align 8, !tbaa !98
  %44 = zext nneg i32 %8 to i64
  %45 = add nsw i64 %9, %44
  %46 = call i64 @avio_seek(ptr noundef nonnull %6, i64 noundef %45, i32 noundef 0) #12
  br label %47

47:                                               ; preds = %41, %16
  %.029 = phi i32 [ -1094995529, %16 ], [ %.0, %41 ]
  call void @llvm.lifetime.end.p0(i64 4, ptr nonnull %5) #12
  ret i32 %.029
}